; Function Attrs: mustprogress uwtable
define void @udatpg_setAppendItemFormat_77(ptr noundef %0, i32 noundef %1, ptr noundef %2, i32 noundef %3) local_unnamed_addr #0 personality ptr @__gxx_personality_v0 {
  %5 = alloca %"class.icu_77::UnicodeString", align 8
  %6 = alloca %"class.icu_77::ConstChar16Ptr", align 8
  call void @llvm.lifetime.start.p0(i64 64, ptr nonnull %5) #5
  %.lobit = lshr i32 %3, 31
  %7 = trunc nuw nsw i32 %.lobit to i8
  store ptr %2, ptr %6, align 8, !tbaa !9
  invoke void @_ZN6icu_7713UnicodeStringC1EaNS_14ConstChar16PtrEi(ptr noundef nonnull align 8 dereferenceable(64) %5, i8 noundef signext %7, ptr noundef nonnull %6, i32 noundef %3)
          to label %8 unwind label %11

8:                                                ; preds = %4
  %9 = load ptr, ptr %6, align 8, !tbaa !9
  call void asm sideeffect "", "rm,~{memory},~{dirflag},~{fpsr},~{flags}"(ptr %9) #5, !srcloc !13
  invoke void @_ZN6icu_7724DateTimePatternGenerator19setAppendItemFormatE21UDateTimePatternFieldRKNS_13UnicodeStringE(ptr noundef nonnull align 8 dereferenceable(4796) %0, i32 noundef %1, ptr noundef nonnull align 8 dereferenceable(64) %5)
          to label %10 unwind label %14

10:                                               ; preds = %8
  call void @_ZN6icu_7713UnicodeStringD1Ev(ptr noundef nonnull align 8 dereferenceable(64) %5) #5
  call void @llvm.lifetime.end.p0(i64 64, ptr nonnull %5) #5
  ret void

11:                                               ; preds = %4
  %12 = landingpad { ptr, i32 }
          cleanup
  %13 = load ptr, ptr %6, align 8, !tbaa !9
  call void asm sideeffect "", "rm,~{memory},~{dirflag},~{fpsr},~{flags}"(ptr %13) #5, !srcloc !13
  br label %16

14:                                               ; preds = %8
  %15 = landingpad { ptr, i32 }
          cleanup
  call void @_ZN6icu_7713UnicodeStringD1Ev(ptr noundef nonnull align 8 dereferenceable(64) %5) #5
  br label %16

16:                                               ; preds = %14, %11
  %.pn = phi { ptr, i32 } [ %15, %14 ], [ %12, %11 ]
  call void @llvm.lifetime.end.p0(i64 64, ptr nonnull %5) #5
  resume { ptr, i32 } %.pn
}